target datalayout = "e-m:e-p270:32:32-p271:32:32-p272:64:64-i64:64-i128:128-f80:128-n8:16:32:64-S128"
target triple = "x86_64-pc-linux-gnu"

%struct.__va_list_tag = type { i32, i32, ptr, ptr }

; Function Attrs: nounwind uwtable
define dso_local i32 @fprintf_ln(ptr noundef %0, ptr noundef %1, ...) #0 {
  %3 = alloca i32, align 4
  %4 = alloca ptr, align 8
  %5 = alloca ptr, align 8
  %6 = alloca i32, align 4
  %7 = alloca [1 x %struct.__va_list_tag], align 16
  %8 = alloca i32, align 4
  store ptr %0, ptr %4, align 8, !tbaa !52
  store ptr %1, ptr %5, align 8, !tbaa !4
  call void @llvm.lifetime.start.p0(i64 4, ptr %6) #11
  call void @llvm.lifetime.start.p0(i64 24, ptr %7) #11
  %9 = getelementptr inbounds [1 x %struct.__va_list_tag], ptr %7, i64 0, i64 0
  call void @llvm.va_start.p0(ptr %9)
  %10 = load ptr, ptr %4, align 8, !tbaa !52
  %11 = load ptr, ptr %5, align 8, !tbaa !4
  %12 = getelementptr inbounds [1 x %struct.__va_list_tag], ptr %7, i64 0, i64 0
  %13 = call i32 @vfprintf(ptr noundef %10, ptr noundef %11, ptr noundef %12) #11
  store i32 %13, ptr %6, align 4, !tbaa !10
  %14 = getelementptr inbounds [1 x %struct.__va_list_tag], ptr %7, i64 0, i64 0
  call void @llvm.va_end.p0(ptr %14)
  %15 = load i32, ptr %6, align 4, !tbaa !10
  %16 = icmp slt i32 %15, 0
  br i1 %16, label %21, label %17

17:                                               ; preds = %2
  %18 = load ptr, ptr %4, align 8, !tbaa !52
  %19 = call i32 @putc(i32 noundef 10, ptr noundef %18)
  %20 = icmp eq i32 %19, -1
  br i1 %20, label %21, label %22

21:                                               ; preds = %17, %2
  store i32 -1, ptr %3, align 4
  store i32 1, ptr %8, align 4
  br label %25

22:                                               ; preds = %17
  %23 = load i32, ptr %6, align 4, !tbaa !10
  %24 = add nsw i32 %23, 1
  store i32 %24, ptr %3, align 4
  store i32 1, ptr %8, align 4
  br label %25

25:                                               ; preds = %22, %21
  call void @llvm.lifetime.end.p0(i64 24, ptr %7) #11
  call void @llvm.lifetime.end.p0(i64 4, ptr %6) #11
  %26 = load i32, ptr %3, align 4
  ret i32 %26
}