; Function Attrs: nofree nounwind uwtable
define dso_local range(i32 -1, -2147483648) i32 @fprintf_ln(ptr noundef captures(none) %0, ptr noundef readonly captures(none) %1, ...) local_unnamed_addr #19 {
  %3 = alloca [1 x %struct.__va_list_tag], align 16
  call void @llvm.lifetime.start.p0(i64 24, ptr nonnull %3) #25
  call void @llvm.va_start.p0(ptr nonnull %3)
  %4 = call i32 @vfprintf(ptr noundef %0, ptr noundef %1, ptr noundef nonnull %3) #25
  call void @llvm.va_end.p0(ptr nonnull %3)
  %5 = icmp slt i32 %4, 0
  br i1 %5, label %10, label %6

6:                                                ; preds = %2
  %7 = call i32 @putc(i32 noundef 10, ptr noundef %0)
  %8 = icmp eq i32 %7, -1
  %9 = add nuw nsw i32 %4, 1
  %spec.select = select i1 %8, i32 -1, i32 %9
  br label %10

10:                                               ; preds = %6, %2
  %.0 = phi i32 [ -1, %2 ], [ %spec.select, %6 ]
  call void @llvm.lifetime.end.p0(i64 24, ptr nonnull %3) #25
  ret i32 %.0
}